target datalayout = "e-m:e-p270:32:32-p271:32:32-p272:64:64-i64:64-i128:128-f80:128-n8:16:32:64-S128"
target triple = "x86_64-pc-linux-gnu"

%struct.IMXI2C = type { %struct.QOSGraphObject, %struct.I2CAdapter, i64 }
%struct.QOSGraphObject = type { ptr, ptr, ptr, ptr, ptr }
%struct.I2CAdapter = type { ptr, ptr, ptr }

; Function Attrs: nounwind sspstrong uwtable
define dso_local void @imx_i2c_init(ptr noundef %0, ptr noundef %1, i64 noundef %2) #0 {
  %4 = alloca ptr, align 8
  %5 = alloca ptr, align 8
  %6 = alloca i64, align 8
  store ptr %0, ptr %4, align 8
  store ptr %1, ptr %5, align 8
  store i64 %2, ptr %6, align 8
  %7 = load i64, ptr %6, align 8
  %8 = load ptr, ptr %4, align 8
  %9 = getelementptr inbounds nuw %struct.IMXI2C, ptr %8, i32 0, i32 2
  store i64 %7, ptr %9, align 8
  %10 = load ptr, ptr %4, align 8
  %11 = getelementptr inbounds nuw %struct.IMXI2C, ptr %10, i32 0, i32 0
  %12 = getelementptr inbounds nuw %struct.QOSGraphObject, ptr %11, i32 0, i32 0
  store ptr @imx_i2c_get_driver, ptr %12, align 8
  %13 = load ptr, ptr %4, align 8
  %14 = getelementptr inbounds nuw %struct.IMXI2C, ptr %13, i32 0, i32 1
  %15 = getelementptr inbounds nuw %struct.I2CAdapter, ptr %14, i32 0, i32 0
  store ptr @imx_i2c_send, ptr %15, align 8
  %16 = load ptr, ptr %4, align 8
  %17 = getelementptr inbounds nuw %struct.IMXI2C, ptr %16, i32 0, i32 1
  %18 = getelementptr inbounds nuw %struct.I2CAdapter, ptr %17, i32 0, i32 1
  store ptr @imx_i2c_recv, ptr %18, align 8
  %19 = load ptr, ptr %5, align 8
  %20 = load ptr, ptr %4, align 8
  %21 = getelementptr inbounds nuw %struct.IMXI2C, ptr %20, i32 0, i32 1
  %22 = getelementptr inbounds nuw %struct.I2CAdapter, ptr %21, i32 0, i32 2
  store ptr %19, ptr %22, align 8
  ret void
}