; Function Attrs: mustprogress nofree norecurse nosync nounwind sspstrong willreturn memory(argmem: write) uwtable
define dso_local void @imx_i2c_init(ptr noundef writeonly captures(none) initializes((0, 8), (40, 72)) %0, ptr noundef %1, i64 noundef %2) local_unnamed_addr #0 {
  %4 = getelementptr inbounds nuw i8, ptr %0, i64 64
  store i64 %2, ptr %4, align 8
  store ptr @imx_i2c_get_driver, ptr %0, align 8
  %5 = getelementptr inbounds nuw i8, ptr %0, i64 40
  store ptr @imx_i2c_send, ptr %5, align 8
  %6 = getelementptr inbounds nuw i8, ptr %0, i64 48
  store ptr @imx_i2c_recv, ptr %6, align 8
  %7 = getelementptr inbounds nuw i8, ptr %0, i64 56
  store ptr %1, ptr %7, align 8
  ret void
}